; Listing generated by Microsoft (R) Optimizing Compiler Version 19.27.29112.0 

include listing.inc

INCLUDELIB OLDNAMES

PUBLIC	??_C@_09IOAHFIDM@?5seconds?4@			; `string'
PUBLIC	??_C@_04HMADHGDM@SSE?5@				; `string'
PUBLIC	??_C@_0L@HAFBHMDM@SSE_Block?5@			; `string'
PUBLIC	??_C@_05PDJBBECF@pause@				; `string'
PUBLIC	??_C@_01HIHLOKLC@1@				; `string'
PUBLIC	??_C@_0N@LPFKKEBD@?3AM?3am?3PM?3pm@		; `string'
PUBLIC	??_C@_1BK@MHIKGOKE@?$AA?3?$AAA?$AAM?$AA?3?$AAa?$AAm?$AA?3?$AAP?$AAM?$AA?3?$AAp?$AAm@ ; `string'
EXTRN	__imp_?_Getcvt@_Locinfo@std@@QEBA?AU_Cvtvec@@XZ:PROC
EXTRN	__imp_?_Getdays@_Locinfo@std@@QEBAPEBDXZ:PROC
EXTRN	__imp_?_Getmonths@_Locinfo@std@@QEBAPEBDXZ:PROC
EXTRN	__imp_?_W_Getdays@_Locinfo@std@@QEBAPEBGXZ:PROC
EXTRN	__imp_?_W_Getmonths@_Locinfo@std@@QEBAPEBGXZ:PROC
EXTRN	__imp_?rdstate@ios_base@std@@QEBAHXZ:PROC
EXTRN	__imp_?good@ios_base@std@@QEBA_NXZ:PROC
EXTRN	__imp_?flags@ios_base@std@@QEBAHXZ:PROC
EXTRN	__imp_?width@ios_base@std@@QEBA_JXZ:PROC
EXTRN	__imp_?width@ios_base@std@@QEAA_J_J@Z:PROC
EXTRN	__imp_??6?$basic_ostream@DU?$char_traits@D@std@@@std@@QEAAAEAV01@N@Z:PROC
EXTRN	__imp_??6?$basic_ostream@DU?$char_traits@D@std@@@std@@QEAAAEAV01@P6AAEAV01@AEAV01@@Z@Z:PROC
EXTRN	__imp_?fill@?$basic_ios@DU?$char_traits@D@std@@@std@@QEBADXZ:PROC
EXTRN	__imp_?rdbuf@?$basic_ios@DU?$char_traits@D@std@@@std@@QEBAPEAV?$basic_streambuf@DU?$char_traits@D@std@@@2@XZ:PROC
EXTRN	__imp_?setstate@?$basic_ios@DU?$char_traits@D@std@@@std@@QEAAXH_N@Z:PROC
EXTRN	__imp_?flush@?$basic_ostream@DU?$char_traits@D@std@@@std@@QEAAAEAV12@XZ:PROC
EXTRN	__imp_?_Osfx@?$basic_ostream@DU?$char_traits@D@std@@@std@@QEAAXXZ:PROC
EXTRN	__imp_?tie@?$basic_ios@DU?$char_traits@D@std@@@std@@QEBAPEAV?$basic_ostream@DU?$char_traits@D@std@@@2@XZ:PROC
EXTRN	__imp_?sputc@?$basic_streambuf@DU?$char_traits@D@std@@@std@@QEAAHD@Z:PROC
EXTRN	__imp_?put@?$basic_ostream@DU?$char_traits@D@std@@@std@@QEAAAEAV12@D@Z:PROC
EXTRN	__imp_?widen@?$basic_ios@DU?$char_traits@D@std@@@std@@QEBADD@Z:PROC
EXTRN	__imp_?sputn@?$basic_streambuf@DU?$char_traits@D@std@@@std@@QEAA_JPEBD_J@Z:PROC
EXTRN	__imp__Query_perf_counter:PROC
EXTRN	__imp___std_terminate:PROC
EXTRN	__imp__time64:PROC
EXTRN	__imp_system:PROC
EXTRN	__imp___stdio_common_vfprintf:PROC
EXTRN	__imp__aligned_malloc:PROC
EXTRN	__imp_rand:PROC
EXTRN	__imp_?_Xbad_alloc@std@@YAXXZ:PROC
EXTRN	__imp_?uncaught_exception@std@@YA_NXZ:PROC
EXTRN	__imp_?cout@std@@3V?$basic_ostream@DU?$char_traits@D@std@@@1@A:BYTE
EXTRN	__imp__Query_perf_frequency:PROC
EXTRN	__imp___acrt_iob_func:PROC
EXTRN	__imp_srand:PROC
EXTRN	__imp_calloc:PROC
EXTRN	__imp__Mbrtowc:PROC
EXTRN	__security_check_cookie:PROC
EXTRN	__imp___CxxFrameHandler4:PROC
;	COMDAT ??_C@_1BK@MHIKGOKE@?$AA?3?$AAA?$AAM?$AA?3?$AAa?$AAm?$AA?3?$AAP?$AAM?$AA?3?$AAp?$AAm@
CONST	SEGMENT
??_C@_1BK@MHIKGOKE@?$AA?3?$AAA?$AAM?$AA?3?$AAa?$AAm?$AA?3?$AAP?$AAM?$AA?3?$AAp?$AAm@ DB ':'
	DB	00H, 'A', 00H, 'M', 00H, ':', 00H, 'a', 00H, 'm', 00H, ':', 00H
	DB	'P', 00H, 'M', 00H, ':', 00H, 'p', 00H, 'm', 00H, 00H, 00H ; `string'
CONST	ENDS
;	COMDAT ??_C@_0N@LPFKKEBD@?3AM?3am?3PM?3pm@
CONST	SEGMENT
??_C@_0N@LPFKKEBD@?3AM?3am?3PM?3pm@ DB ':AM:am:PM:pm', 00H ; `string'
CONST	ENDS
;	COMDAT ??_C@_01HIHLOKLC@1@
CONST	SEGMENT
??_C@_01HIHLOKLC@1@ DB '1', 00H				; `string'
CONST	ENDS
;	COMDAT ??_C@_05PDJBBECF@pause@
CONST	SEGMENT
??_C@_05PDJBBECF@pause@ DB 'pause', 00H			; `string'
CONST	ENDS
;	COMDAT ??_C@_0L@HAFBHMDM@SSE_Block?5@
CONST	SEGMENT
??_C@_0L@HAFBHMDM@SSE_Block?5@ DB 'SSE_Block ', 00H	; `string'
CONST	ENDS
;	COMDAT ??_C@_04HMADHGDM@SSE?5@
CONST	SEGMENT
??_C@_04HMADHGDM@SSE?5@ DB 'SSE ', 00H			; `string'
CONST	ENDS
;	COMDAT ??_C@_09IOAHFIDM@?5seconds?4@
CONST	SEGMENT
??_C@_09IOAHFIDM@?5seconds?4@ DB ' seconds.', 00H	; `string'
CONST	ENDS
PUBLIC	??$?G_JU?$ratio@$00$0DLJKMKAA@@std@@_JU01@@chrono@std@@YA?AV?$duration@_JU?$ratio@$00$0DLJKMKAA@@std@@@01@AEBV201@0@Z ; std::chrono::operator-<__int64,std::ratio<1,1000000000>,__int64,std::ratio<1,1000000000> >
PUBLIC	?time_since_epoch@?$time_point@Usteady_clock@chrono@std@@V?$duration@_JU?$ratio@$00$0DLJKMKAA@@std@@@23@@chrono@std@@QEBA?AV?$duration@_JU?$ratio@$00$0DLJKMKAA@@std@@@23@XZ ; std::chrono::time_point<std::chrono::steady_clock,std::chrono::duration<__int64,std::ratio<1,1000000000> > >::time_since_epoch
PUBLIC	??$endl@DU?$char_traits@D@std@@@std@@YAAEAV?$basic_ostream@DU?$char_traits@D@std@@@0@AEAV10@@Z ; std::endl<char,std::char_traits<char> >
PUBLIC	??$?6U?$char_traits@D@std@@@std@@YAAEAV?$basic_ostream@DU?$char_traits@D@std@@@0@AEAV10@PEBD@Z ; std::operator<<<std::char_traits<char> >
PUBLIC	??$?GUsteady_clock@chrono@std@@V?$duration@_JU?$ratio@$00$0DLJKMKAA@@std@@@12@V312@@chrono@std@@YA?AV?$duration@_JU?$ratio@$00$0DLJKMKAA@@std@@@01@AEBV?$time_point@Usteady_clock@chrono@std@@V?$duration@_JU?$ratio@$00$0DLJKMKAA@@std@@@23@@01@0@Z ; std::chrono::operator-<std::chrono::steady_clock,std::chrono::duration<__int64,std::ratio<1,1000000000> >,std::chrono::duration<__int64,std::ratio<1,1000000000> > >
PUBLIC	??0_Sentry_base@?$basic_ostream@DU?$char_traits@D@std@@@std@@QEAA@AEAV12@@Z ; std::basic_ostream<char,std::char_traits<char> >::_Sentry_base::_Sentry_base
PUBLIC	??1_Sentry_base@?$basic_ostream@DU?$char_traits@D@std@@@std@@QEAA@XZ ; std::basic_ostream<char,std::char_traits<char> >::_Sentry_base::~_Sentry_base
PUBLIC	?length@?$_Narrow_char_traits@DH@std@@SA_KQEBD@Z ; std::_Narrow_char_traits<char,int>::length
PUBLIC	?eq_int_type@?$_Narrow_char_traits@DH@std@@SA_NAEBH0@Z ; std::_Narrow_char_traits<char,int>::eq_int_type
PUBLIC	?eof@?$_Narrow_char_traits@DH@std@@SAHXZ	; std::_Narrow_char_traits<char,int>::eof
PUBLIC	??0sentry@?$basic_ostream@DU?$char_traits@D@std@@@std@@QEAA@AEAV12@@Z ; std::basic_ostream<char,std::char_traits<char> >::sentry::sentry
PUBLIC	??1sentry@?$basic_ostream@DU?$char_traits@D@std@@@std@@QEAA@XZ ; std::basic_ostream<char,std::char_traits<char> >::sentry::~sentry
PUBLIC	??Bsentry@?$basic_ostream@DU?$char_traits@D@std@@@std@@QEBA_NXZ ; std::basic_ostream<char,std::char_traits<char> >::sentry::operator bool
PUBLIC	??0?$time_point@Usteady_clock@chrono@std@@V?$duration@_JU?$ratio@$00$0DLJKMKAA@@std@@@23@@chrono@std@@QEAA@AEBV?$duration@_JU?$ratio@$00$0DLJKMKAA@@std@@@12@@Z ; std::chrono::time_point<std::chrono::steady_clock,std::chrono::duration<__int64,std::ratio<1,1000000000> > >::time_point<std::chrono::steady_clock,std::chrono::duration<__int64,std::ratio<1,1000000000> > >
PUBLIC	?SSEMatrixMultBlock@@YAXPEAPEAM00@Z		; SSEMatrixMultBlock
PUBLIC	?SSEMatrixMult@@YAXPEAPEAM00@Z			; SSEMatrixMult
PUBLIC	main
PUBLIC	?count@?$duration@NU?$ratio@$00$00@std@@@chrono@std@@QEBANXZ ; std::chrono::duration<double,std::ratio<1,1> >::count
PUBLIC	??$?0N$0A@@?$duration@NU?$ratio@$00$00@std@@@chrono@std@@QEAA@AEBN@Z ; std::chrono::duration<double,std::ratio<1,1> >::duration<double,std::ratio<1,1> ><double,0>
PUBLIC	??$duration_cast@V?$duration@NU?$ratio@$00$00@std@@@chrono@std@@_JU?$ratio@$00$0DLJKMKAA@@3@$0A@@chrono@std@@YA?AV?$duration@NU?$ratio@$00$00@std@@@01@AEBV?$duration@_JU?$ratio@$00$0DLJKMKAA@@std@@@01@@Z ; std::chrono::duration_cast<std::chrono::duration<double,std::ratio<1,1> >,__int64,std::ratio<1,1000000000>,0>
PUBLIC	?count@?$duration@_JU?$ratio@$00$0DLJKMKAA@@std@@@chrono@std@@QEBA_JXZ ; std::chrono::duration<__int64,std::ratio<1,1000000000> >::count
PUBLIC	??$?0_J$0A@@?$duration@_JU?$ratio@$00$0DLJKMKAA@@std@@@chrono@std@@QEAA@AEB_J@Z ; std::chrono::duration<__int64,std::ratio<1,1000000000> >::duration<__int64,std::ratio<1,1000000000> ><__int64,0>
PUBLIC	?now@steady_clock@chrono@std@@SA?AV?$time_point@Usteady_clock@chrono@std@@V?$duration@_JU?$ratio@$00$0DLJKMKAA@@std@@@23@@23@XZ ; std::chrono::steady_clock::now
PUBLIC	printf
PUBLIC	_vfprintf_l
PUBLIC	__local_stdio_printf_options
PUBLIC	?_OptionsStorage@?1??__local_stdio_printf_options@@9@4_KA ; `__local_stdio_printf_options'::`2'::_OptionsStorage
PUBLIC	__real@41cdcd6500000000
PUBLIC	__real@43a38000
EXTRN	__CxxFrameHandler4:PROC
EXTRN	__std_terminate:PROC
EXTRN	memset:PROC
EXTRN	_fltused:DWORD
;	COMDAT ?_OptionsStorage@?1??__local_stdio_printf_options@@9@4_KA
_BSS	SEGMENT
?_OptionsStorage@?1??__local_stdio_printf_options@@9@4_KA DQ 01H DUP (?) ; `__local_stdio_printf_options'::`2'::_OptionsStorage
_BSS	ENDS
;	COMDAT pdata
pdata	SEGMENT
$pdata$??$endl@DU?$char_traits@D@std@@@std@@YAAEAV?$basic_ostream@DU?$char_traits@D@std@@@0@AEAV10@@Z DD imagerel $LN4@endl
	DD	imagerel $LN4@endl+57
	DD	imagerel $unwind$??$endl@DU?$char_traits@D@std@@@std@@YAAEAV?$basic_ostream@DU?$char_traits@D@std@@@0@AEAV10@@Z
pdata	ENDS
;	COMDAT pdata
pdata	SEGMENT
$pdata$??$?6U?$char_traits@D@std@@@std@@YAAEAV?$basic_ostream@DU?$char_traits@D@std@@@0@AEAV10@PEBD@Z DD imagerel $LN99@operator
	DD	imagerel $LN99@operator+458
	DD	imagerel $unwind$??$?6U?$char_traits@D@std@@@std@@YAAEAV?$basic_ostream@DU?$char_traits@D@std@@@0@AEAV10@PEBD@Z
pdata	ENDS
;	COMDAT pdata
pdata	SEGMENT
$pdata$?catch$4@?0???$?6U?$char_traits@D@std@@@std@@YAAEAV?$basic_ostream@DU?$char_traits@D@std@@@0@AEAV10@PEBD@Z@4HA DD imagerel ?catch$4@?0???$?6U?$char_traits@D@std@@@std@@YAAEAV?$basic_ostream@DU?$char_traits@D@std@@@0@AEAV10@PEBD@Z@4HA
	DD	imagerel ?catch$4@?0???$?6U?$char_traits@D@std@@@std@@YAAEAV?$basic_ostream@DU?$char_traits@D@std@@@0@AEAV10@PEBD@Z@4HA+59
	DD	imagerel $unwind$?catch$4@?0???$?6U?$char_traits@D@std@@@std@@YAAEAV?$basic_ostream@DU?$char_traits@D@std@@@0@AEAV10@PEBD@Z@4HA
pdata	ENDS
;	COMDAT pdata
pdata	SEGMENT
$pdata$??0_Sentry_base@?$basic_ostream@DU?$char_traits@D@std@@@std@@QEAA@AEAV12@@Z DD imagerel $LN8@Sentry_bas
	DD	imagerel $LN8@Sentry_bas+44
	DD	imagerel $unwind$??0_Sentry_base@?$basic_ostream@DU?$char_traits@D@std@@@std@@QEAA@AEAV12@@Z
pdata	ENDS
;	COMDAT pdata
pdata	SEGMENT
$pdata$??1_Sentry_base@?$basic_ostream@DU?$char_traits@D@std@@@std@@QEAA@XZ DD imagerel $LN8@Sentry_bas
	DD	imagerel $LN8@Sentry_bas+36
	DD	imagerel $unwind$??1_Sentry_base@?$basic_ostream@DU?$char_traits@D@std@@@std@@QEAA@XZ
pdata	ENDS
;	COMDAT pdata
pdata	SEGMENT
$pdata$??0sentry@?$basic_ostream@DU?$char_traits@D@std@@@std@@QEAA@AEAV12@@Z DD imagerel $LN24@sentry
	DD	imagerel $LN24@sentry+122
	DD	imagerel $unwind$??0sentry@?$basic_ostream@DU?$char_traits@D@std@@@std@@QEAA@AEAV12@@Z
pdata	ENDS
;	COMDAT pdata
pdata	SEGMENT
$pdata$??1sentry@?$basic_ostream@DU?$char_traits@D@std@@@std@@QEAA@XZ DD imagerel $LN13@sentry
	DD	imagerel $LN13@sentry+62
	DD	imagerel $unwind$??1sentry@?$basic_ostream@DU?$char_traits@D@std@@@std@@QEAA@XZ
pdata	ENDS
;	COMDAT pdata
pdata	SEGMENT
$pdata$?SSEMatrixMultBlock@@YAXPEAPEAM00@Z DD imagerel $LN46
	DD	imagerel $LN46+362
	DD	imagerel $unwind$?SSEMatrixMultBlock@@YAXPEAPEAM00@Z
pdata	ENDS
;	COMDAT pdata
pdata	SEGMENT
$pdata$?SSEMatrixMult@@YAXPEAPEAM00@Z DD imagerel $LN25
	DD	imagerel $LN25+165
	DD	imagerel $unwind$?SSEMatrixMult@@YAXPEAPEAM00@Z
pdata	ENDS
;	COMDAT pdata
pdata	SEGMENT
$pdata$main DD	imagerel $LN211
	DD	imagerel $LN211+1467
	DD	imagerel $unwind$main
pdata	ENDS
;	COMDAT pdata
pdata	SEGMENT
$pdata$?now@steady_clock@chrono@std@@SA?AV?$time_point@Usteady_clock@chrono@std@@V?$duration@_JU?$ratio@$00$0DLJKMKAA@@std@@@23@@23@XZ DD imagerel $LN9@now
	DD	imagerel $LN9@now+75
	DD	imagerel $unwind$?now@steady_clock@chrono@std@@SA?AV?$time_point@Usteady_clock@chrono@std@@V?$duration@_JU?$ratio@$00$0DLJKMKAA@@std@@@23@@23@XZ
pdata	ENDS
;	COMDAT pdata
pdata	SEGMENT
$pdata$printf DD imagerel $LN6@printf
	DD	imagerel $LN6@printf+85
	DD	imagerel $unwind$printf
pdata	ENDS
;	COMDAT pdata
pdata	SEGMENT
$pdata$_vfprintf_l DD imagerel $LN4@vfprintf_l
	DD	imagerel $LN4@vfprintf_l+68
	DD	imagerel $unwind$_vfprintf_l
pdata	ENDS
;	COMDAT __real@43a38000
CONST	SEGMENT
__real@43a38000 DD 043a38000r			; 327
CONST	ENDS
;	COMDAT __real@41cdcd6500000000
CONST	SEGMENT
__real@41cdcd6500000000 DQ 041cdcd6500000000r	; 1e+09
CONST	ENDS
;	COMDAT xdata
xdata	SEGMENT
$unwind$_vfprintf_l DQ 00009640f00060f01r	; 1.30596e-308
	DQ	0700b520f0008340fr		; 5.30195e+231
xdata	ENDS
;	COMDAT xdata
xdata	SEGMENT
$unwind$printf DQ 07017521b00041b01r		; 9.05146e+231
	DD	030156016H
xdata	ENDS
;	COMDAT xdata
xdata	SEGMENT
$unwind$?now@steady_clock@chrono@std@@SA?AV?$time_point@Usteady_clock@chrono@std@@V?$duration@_JU?$ratio@$00$0DLJKMKAA@@std@@@23@@23@XZ DQ 00006340a00040a01r ; 8.62672e-309
	DD	07006320aH
xdata	ENDS
;	COMDAT xdata
xdata	SEGMENT
$unwind$main DD	0a1701H
	DD	056817H
	DD	0f00cb210H
	DD	0d008e00aH
	DD	07004c006H
	DD	030026003H
xdata	ENDS
;	COMDAT xdata
xdata	SEGMENT
$unwind$?SSEMatrixMult@@YAXPEAPEAM00@Z DD 081401H
	DD	04e414H
	DD	03740fH
	DD	02640aH
	DD	013405H
xdata	ENDS
;	COMDAT xdata
xdata	SEGMENT
$unwind$?SSEMatrixMultBlock@@YAXPEAPEAM00@Z DD 081901H
	DD	0f0153219H
	DD	0d011e013H
	DD	0700dc00fH
	DD	0300b600cH
xdata	ENDS
;	COMDAT xdata
xdata	SEGMENT
$ip2state$??1sentry@?$basic_ostream@DU?$char_traits@D@std@@@std@@QEAA@XZ DD 03c002c04H
	DB	02H
xdata	ENDS
;	COMDAT xdata
xdata	SEGMENT
$stateUnwindMap$??1sentry@?$basic_ostream@DU?$char_traits@D@std@@@std@@QEAA@XZ DW 0e02H
	DD	imagerel __std_terminate
xdata	ENDS
;	COMDAT xdata
xdata	SEGMENT
$cppxdata$??1sentry@?$basic_ostream@DU?$char_traits@D@std@@@std@@QEAA@XZ DB 068H
	DD	imagerel $stateUnwindMap$??1sentry@?$basic_ostream@DU?$char_traits@D@std@@@std@@QEAA@XZ
	DD	imagerel $ip2state$??1sentry@?$basic_ostream@DU?$char_traits@D@std@@@std@@QEAA@XZ
xdata	ENDS
;	COMDAT xdata
xdata	SEGMENT
$unwind$??1sentry@?$basic_ostream@DU?$char_traits@D@std@@@std@@QEAA@XZ DQ 03002320600020619r ; 1.96423e-77
	DD	imagerel __CxxFrameHandler4
	DD	imagerel $cppxdata$??1sentry@?$basic_ostream@DU?$char_traits@D@std@@@std@@QEAA@XZ
xdata	ENDS
;	COMDAT xdata
xdata	SEGMENT
$ip2state$??0sentry@?$basic_ostream@DU?$char_traits@D@std@@@std@@QEAA@AEAV12@@Z DD 048005804H
	DB	02H
xdata	ENDS
;	COMDAT xdata
xdata	SEGMENT
$stateUnwindMap$??0sentry@?$basic_ostream@DU?$char_traits@D@std@@@std@@QEAA@AEAV12@@Z DW 0c02H
	DD	imagerel ??1_Sentry_base@?$basic_ostream@DU?$char_traits@D@std@@@std@@QEAA@XZ
	DB	060H
xdata	ENDS
;	COMDAT xdata
xdata	SEGMENT
$cppxdata$??0sentry@?$basic_ostream@DU?$char_traits@D@std@@@std@@QEAA@AEAV12@@Z DB 028H
	DD	imagerel $stateUnwindMap$??0sentry@?$basic_ostream@DU?$char_traits@D@std@@@std@@QEAA@AEAV12@@Z
	DD	imagerel $ip2state$??0sentry@?$basic_ostream@DU?$char_traits@D@std@@@std@@QEAA@AEAV12@@Z
xdata	ENDS
;	COMDAT xdata
xdata	SEGMENT
$unwind$??0sentry@?$basic_ostream@DU?$char_traits@D@std@@@std@@QEAA@AEAV12@@Z DQ 00007340f00040f11r ; 1.00175e-308
	DD	0700b320fH
	DD	imagerel __CxxFrameHandler4
	DD	imagerel $cppxdata$??0sentry@?$basic_ostream@DU?$char_traits@D@std@@@std@@QEAA@AEAV12@@Z
xdata	ENDS
;	COMDAT xdata
xdata	SEGMENT
$ip2state$??1_Sentry_base@?$basic_ostream@DU?$char_traits@D@std@@@std@@QEAA@XZ DW 03602H
	DB	00H
xdata	ENDS
;	COMDAT xdata
xdata	SEGMENT
$cppxdata$??1_Sentry_base@?$basic_ostream@DU?$char_traits@D@std@@@std@@QEAA@XZ DB 060H
	DD	imagerel $ip2state$??1_Sentry_base@?$basic_ostream@DU?$char_traits@D@std@@@std@@QEAA@XZ
xdata	ENDS
;	COMDAT xdata
xdata	SEGMENT
$unwind$??1_Sentry_base@?$basic_ostream@DU?$char_traits@D@std@@@std@@QEAA@XZ DQ 00000420400010419r ; 3.58617e-310
	DD	imagerel __CxxFrameHandler4
	DD	imagerel $cppxdata$??1_Sentry_base@?$basic_ostream@DU?$char_traits@D@std@@@std@@QEAA@XZ
xdata	ENDS
;	COMDAT xdata
xdata	SEGMENT
$unwind$??0_Sentry_base@?$basic_ostream@DU?$char_traits@D@std@@@std@@QEAA@AEAV12@@Z DQ 03002320600020601r ; 1.96423e-77
xdata	ENDS
;	COMDAT xdata
xdata	SEGMENT
$unwind$?catch$4@?0???$?6U?$char_traits@D@std@@@std@@YAAEAV?$basic_ostream@DU?$char_traits@D@std@@@0@AEAV10@PEBD@Z@4HA DQ 05006320a00020a01r ; 3.21257e+77
xdata	ENDS
;	COMDAT xdata
xdata	SEGMENT
$ip2state$??$?6U?$char_traits@D@std@@@std@@YAAEAV?$basic_ostream@DU?$char_traits@D@std@@@0@AEAV10@PEBD@Z DQ 0d806b6025400e20er ; -1.11857e+116
	DD	0280a4c04H
	DW	0320cH
	DB	00H
xdata	ENDS
;	COMDAT xdata
xdata	SEGMENT
$handlerMap$??$?6U?$char_traits@D@std@@@std@@YAAEAV?$basic_ostream@DU?$char_traits@D@std@@@0@AEAV10@PEBD@Z DW 01102H
	DB	080H
	DD	imagerel ?catch$4@?0???$?6U?$char_traits@D@std@@@std@@YAAEAV?$basic_ostream@DU?$char_traits@D@std@@@0@AEAV10@PEBD@Z@4HA
	DW	0591H
xdata	ENDS
;	COMDAT xdata
xdata	SEGMENT
$tryMap$??$?6U?$char_traits@D@std@@@std@@YAAEAV?$basic_ostream@DU?$char_traits@D@std@@@0@AEAV10@PEBD@Z DD 06040402H
	DD	imagerel $handlerMap$??$?6U?$char_traits@D@std@@@std@@YAAEAV?$basic_ostream@DU?$char_traits@D@std@@@0@AEAV10@PEBD@Z
xdata	ENDS
;	COMDAT xdata
xdata	SEGMENT
$stateUnwindMap$??$?6U?$char_traits@D@std@@@std@@YAAEAV?$basic_ostream@DU?$char_traits@D@std@@@0@AEAV10@PEBD@Z DW 0a0cH
	DD	imagerel ??1_Sentry_base@?$basic_ostream@DU?$char_traits@D@std@@@std@@QEAA@XZ
	DW	03a40H
	DD	imagerel ??1sentry@?$basic_ostream@DU?$char_traits@D@std@@@std@@QEAA@XZ
	DD	07e383040H
	DD	imagerel __std_terminate
	DB	02eH
	DD	imagerel __std_terminate
xdata	ENDS
;	COMDAT xdata
xdata	SEGMENT
$cppxdata$??$?6U?$char_traits@D@std@@@std@@YAAEAV?$basic_ostream@DU?$char_traits@D@std@@@0@AEAV10@PEBD@Z DB 038H
	DD	imagerel $stateUnwindMap$??$?6U?$char_traits@D@std@@@std@@YAAEAV?$basic_ostream@DU?$char_traits@D@std@@@0@AEAV10@PEBD@Z
	DD	imagerel $tryMap$??$?6U?$char_traits@D@std@@@std@@YAAEAV?$basic_ostream@DU?$char_traits@D@std@@@0@AEAV10@PEBD@Z
	DD	imagerel $ip2state$??$?6U?$char_traits@D@std@@@std@@YAAEAV?$basic_ostream@DU?$char_traits@D@std@@@0@AEAV10@PEBD@Z
xdata	ENDS
;	COMDAT xdata
xdata	SEGMENT
$unwind$??$?6U?$char_traits@D@std@@@std@@YAAEAV?$basic_ostream@DU?$char_traits@D@std@@@0@AEAV10@PEBD@Z DQ 0000d341600081619r ; 1.83617e-308
	DQ	0c00ee010f0125216r		; -3.85941
	DD	0600b700cH
	DD	imagerel __CxxFrameHandler4
	DD	imagerel $cppxdata$??$?6U?$char_traits@D@std@@@std@@YAAEAV?$basic_ostream@DU?$char_traits@D@std@@@0@AEAV10@PEBD@Z
xdata	ENDS
;	COMDAT xdata
xdata	SEGMENT
$unwind$??$endl@DU?$char_traits@D@std@@@std@@YAAEAV?$basic_ostream@DU?$char_traits@D@std@@@0@AEAV10@@Z DQ 03002320600020601r ; 1.96423e-77
xdata	ENDS
; Function compile flags: /Ogtpy
; File D:\6 сем\АВП\Lab_2\Lab_2\Main.cpp
; File C:\Program Files (x86)\Windows Kits\10\Include\10.0.18362.0\ucrt\time.h
; File D:\6 сем\АВП\Lab_2\Lab_2\Main.cpp
; File C:\Program Files (x86)\Windows Kits\10\Include\10.0.18362.0\ucrt\time.h
; File D:\6 сем\АВП\Lab_2\Lab_2\Main.cpp
; File C:\Program Files (x86)\Windows Kits\10\Include\10.0.18362.0\ucrt\time.h
; File D:\6 сем\АВП\Lab_2\Lab_2\Main.cpp
; File C:\Program Files (x86)\Microsoft Visual Studio\2019\Community\VC\Tools\MSVC\14.27.29110\include\chrono
; File D:\6 сем\АВП\Lab_2\Lab_2\Main.cpp
; File C:\Program Files (x86)\Microsoft Visual Studio\2019\Community\VC\Tools\MSVC\14.27.29110\include\chrono
; File D:\6 сем\АВП\Lab_2\Lab_2\Main.cpp
; File C:\Program Files (x86)\Microsoft Visual Studio\2019\Community\VC\Tools\MSVC\14.27.29110\include\chrono
; File D:\6 сем\АВП\Lab_2\Lab_2\Main.cpp
; File C:\Program Files (x86)\Microsoft Visual Studio\2019\Community\VC\Tools\MSVC\14.27.29110\include\chrono
; File D:\6 сем\АВП\Lab_2\Lab_2\Main.cpp
; File C:\Program Files (x86)\Microsoft Visual Studio\2019\Community\VC\Tools\MSVC\14.27.29110\include\chrono
; File D:\6 сем\АВП\Lab_2\Lab_2\Main.cpp
; File C:\Program Files (x86)\Microsoft Visual Studio\2019\Community\VC\Tools\MSVC\14.27.29110\include\chrono
; File D:\6 сем\АВП\Lab_2\Lab_2\Main.cpp
; File C:\Program Files (x86)\Microsoft Visual Studio\2019\Community\VC\Tools\MSVC\14.27.29110\include\chrono
; File D:\6 сем\АВП\Lab_2\Lab_2\Main.cpp
; File C:\Program Files (x86)\Microsoft Visual Studio\2019\Community\VC\Tools\MSVC\14.27.29110\include\chrono
; File D:\6 сем\АВП\Lab_2\Lab_2\Main.cpp
;	COMDAT main
_TEXT	SEGMENT
$T53 = 32
tv2217 = 40
tv2215 = 48
matrix_in_0$1$ = 56
tv2245 = 64
matrix_out_0$1$ = 160
tv2237 = 168
tv2218 = 168
matrix_out_1$1$ = 176
tv2216 = 184
matrix_in_1$1$ = 184
main	PROC						; COMDAT

; 19   : {

$LN211:
	push	rbx
	push	rsi
	push	rdi
	push	r12
	push	r13
	push	r14
	push	r15
	sub	rsp, 96					; 00000060H
; File C:\Program Files (x86)\Windows Kits\10\Include\10.0.18362.0\ucrt\time.h

; 536  :             return _time64(_Time);

	xor	ecx, ecx
	movaps	XMMWORD PTR [rsp+80], xmm6
	call	QWORD PTR __imp__time64
	mov	rcx, rax
; File D:\6 сем\АВП\Lab_2\Lab_2\Main.cpp

; 23   : 	srand(static_cast <unsigned> (time(0)));

	call	QWORD PTR __imp_srand

; 24   : 			matrix_in_0 = (float**)_aligned_malloc(size * sizeof(float*), 16);

	mov	edx, 16
	mov	ecx, 16384				; 00004000H
	call	QWORD PTR __imp__aligned_malloc

; 25   : 			matrix_in_1 = (float**)_aligned_malloc(size * sizeof(float*), 16);

	mov	edx, 16
	mov	ecx, 16384				; 00004000H
	mov	rbx, rax
	mov	QWORD PTR matrix_in_0$1$[rsp], rax
	call	QWORD PTR __imp__aligned_malloc

; 26   : 			matrix_out_0 = (float**)_aligned_malloc(size * sizeof(float*), 16);

	mov	edx, 16
	mov	ecx, 16384				; 00004000H
	mov	QWORD PTR matrix_in_1$1$[rsp], rax
	call	QWORD PTR __imp__aligned_malloc

; 27   : 			matrix_out_1 = (float**)_aligned_malloc(size * sizeof(float*), 16);

	mov	edx, 16
	mov	ecx, 16384				; 00004000H
	mov	rdi, rax
	mov	QWORD PTR matrix_out_0$1$[rsp], rax
	call	QWORD PTR __imp__aligned_malloc
; File C:\Program Files (x86)\Windows Kits\10\Include\10.0.18362.0\ucrt\time.h

; 536  :             return _time64(_Time);

	movss	xmm6, DWORD PTR __real@43a38000
	sub	rbx, rdi
	mov	r14, rax
; File D:\6 сем\АВП\Lab_2\Lab_2\Main.cpp

; 27   : 			matrix_out_1 = (float**)_aligned_malloc(size * sizeof(float*), 16);

	mov	QWORD PTR matrix_out_1$1$[rsp], rax
; File C:\Program Files (x86)\Windows Kits\10\Include\10.0.18362.0\ucrt\time.h

; 536  :             return _time64(_Time);

	sub	r14, rdi
	mov	QWORD PTR tv2237[rsp], rbx
	mov	r12, rdi
	mov	r13d, 2048				; 00000800H
	npad	5
$LL4@main:
; File D:\6 сем\АВП\Lab_2\Lab_2\Main.cpp

; 30   : 				matrix_in_0[i] = (float*)_aligned_malloc(size * sizeof(float), 16);

	mov	edx, 16
	mov	ecx, 8192				; 00002000H
	call	QWORD PTR __imp__aligned_malloc

; 31   : 				matrix_out_0[i] = (float*)_aligned_malloc(size * sizeof(float), 16);

	mov	edx, 16
	mov	ecx, 8192				; 00002000H
	mov	r15, rax
	mov	QWORD PTR [rbx+r12], rax
	call	QWORD PTR __imp__aligned_malloc

; 32   : 				matrix_out_1[i] = (float*)_aligned_malloc(size* sizeof(float), 16);

	mov	edx, 16
	mov	ecx, 8192				; 00002000H
	mov	rdi, rax
	mov	QWORD PTR [r12], rax
	call	QWORD PTR __imp__aligned_malloc
	mov	rsi, rax
	mov	QWORD PTR [r14+r12], rax
	xor	ebx, ebx
$LL7@main:

; 33   : 
; 34   : 				for (int j = 0; j < size; j++) {
; 35   : 					matrix_in_0[i][j] = static_cast <float> (rand()) / (static_cast <float> (RAND_MAX / 100));

	call	QWORD PTR __imp_rand
	movd	xmm0, eax
	cvtdq2ps xmm0, xmm0
	divss	xmm0, xmm6
	movss	DWORD PTR [rbx+r15], xmm0
	add	rbx, 4
	cmp	rbx, 8192				; 00002000H
	jl	SHORT $LL7@main

; 36   : 				}
; 37   : 
; 38   : 				for (int j = 0; j < size; j++) {

	lea	rax, QWORD PTR [rdi+8188]
	lea	rcx, QWORD PTR [rsi+8188]
	cmp	rsi, rax
	ja	SHORT $LN172@main
	cmp	rcx, rdi
	jb	SHORT $LN172@main

; 39   : 					matrix_out_0[i][j] = 0.0f;

	xor	ecx, ecx
	mov	eax, ecx
	npad	9
$LL170@main:
	mov	DWORD PTR [rdi+rax], ecx

; 40   : 					matrix_out_1[i][j] = 0.0f;

	mov	DWORD PTR [rsi+rax], ecx
	add	rax, 4
	cmp	rax, 8192				; 00002000H
	jl	SHORT $LL170@main

; 36   : 				}
; 37   : 
; 38   : 				for (int j = 0; j < size; j++) {

	jmp	SHORT $LN2@main
$LN172@main:

; 39   : 					matrix_out_0[i][j] = 0.0f;

	xor	edx, edx
	mov	r8d, 8192				; 00002000H
	mov	rcx, rdi
	call	memset
	xor	edx, edx
	mov	r8d, 8192				; 00002000H
	mov	rcx, rsi
	call	memset
$LN2@main:

; 28   : 
; 29   : 			for (int i = 0; i < size; i++) {

	mov	rbx, QWORD PTR tv2237[rsp]
	add	r12, 8
	sub	r13, 1
	jne	$LL4@main
	mov	r14, QWORD PTR matrix_in_1$1$[rsp]
	xor	esi, esi
	npad	12
$LL13@main:

; 45   : 				matrix_in_1[i] = (float*)_aligned_malloc(size * sizeof(float), 16);

	mov	edx, 16
	mov	ecx, 8192				; 00002000H
	call	QWORD PTR __imp__aligned_malloc
	mov	rdi, rax
	mov	QWORD PTR [r14+rsi*8], rax
	xor	ebx, ebx
	npad	7
$LL16@main:

; 46   : 
; 47   : 				for (int j = 0; j < size; j++) {
; 48   : 					matrix_in_1[i][j] = static_cast <float> (rand()) / (static_cast <float> (RAND_MAX / 100));

	call	QWORD PTR __imp_rand
	movd	xmm0, eax
	cvtdq2ps xmm0, xmm0
	divss	xmm0, xmm6
	movss	DWORD PTR [rbx+rdi], xmm0
	add	rbx, 4
	cmp	rbx, 8192				; 00002000H
	jl	SHORT $LL16@main

; 41   : 				}
; 42   : 			}
; 43   : 
; 44   : 			for (int i = 0; i < size; i++) {

	inc	rsi
	cmp	rsi, 2048				; 00000800H
	jl	SHORT $LL13@main
; File C:\Program Files (x86)\Microsoft Visual Studio\2019\Community\VC\Tools\MSVC\14.27.29110\include\chrono

; 607  :             const long long _Freq = _Query_perf_frequency(); // doesn't change after system boot

	call	QWORD PTR __imp__Query_perf_frequency
	mov	rbx, rax

; 608  :             const long long _Ctr  = _Query_perf_counter();

	call	QWORD PTR __imp__Query_perf_counter
	mov	rsi, QWORD PTR tv2237[rsp]

; 607  :             const long long _Freq = _Query_perf_frequency(); // doesn't change after system boot

	mov	edi, 2048				; 00000800H

; 616  :             const long long _Part  = (_Ctr % _Freq) * period::den / _Freq;

	cdq
	idiv	rbx
	mov	rcx, rax
	imul	rax, rdx, 1000000000			; 3b9aca00H
	imul	r15, rcx, 1000000000			; 3b9aca00H
	cdq
	idiv	rbx
	mov	rbx, QWORD PTR matrix_out_0$1$[rsp]

; 617  :             return time_point(duration(_Whole + _Part));

	add	r15, rax
	npad	15
$LL36@main:
; File D:\6 сем\АВП\Lab_2\Lab_2\Main.cpp

; 81   : 			RES3 = _mm256_load_ps(&RESMTRX3[i][j]);

	mov	r9, QWORD PTR [rbx]
	mov	r10d, 256				; 00000100H
	mov	r11, QWORD PTR [rbx+rsi]

; 80   : 		for (int j = 0; j <size; j += 8) {

	mov	r8, r9
$LL39@main:

; 81   : 			RES3 = _mm256_load_ps(&RESMTRX3[i][j]);

	vmovups	ymm2, YMMWORD PTR [r8]
	xor	ecx, ecx
	mov	rdx, r11
	npad	6
$LL42@main:

; 82   : 			for (int iin = 0; iin < size; iin++) {
; 83   : 				M1 = _mm256_set1_ps(MTRX1[i][iin]);
; 84   : 				M2 = _mm256_load_ps(&MTRX2[iin][j]);

	mov	rax, QWORD PTR [r14+rcx*8]
	inc	rcx
	sub	rax, r9
	vbroadcastss ymm0, DWORD PTR [rdx]
	lea	rdx, QWORD PTR [rdx+4]

; 85   : 				RES3 = _mm256_add_ps(RES3, _mm256_mul_ps(M1, M2));

	vmulps	ymm0, ymm0, YMMWORD PTR [rax+r8]
	vaddps	ymm2, ymm0, ymm2
	cmp	rcx, 2048				; 00000800H
	jl	SHORT $LL42@main

; 86   : 			}
; 87   : 			_mm256_store_ps(&RESMTRX3[i][j], RES3);

	vmovups	YMMWORD PTR [r8], ymm2
	add	r8, 32					; 00000020H
	sub	r10, 1
	jne	SHORT $LL39@main

; 74   : 
; 75   : 
; 76   : void SSEMatrixMult(float** MTRX1, float** MTRX2, float** RESMTRX3) {
; 77   : 
; 78   : 	__m256 M1, M2, RES3;
; 79   : 	for (int i = 0; i < size; i++) {

	add	rbx, 8
	sub	rdi, 1
	vzeroupper
	jne	SHORT $LL36@main
; File C:\Program Files (x86)\Microsoft Visual Studio\2019\Community\VC\Tools\MSVC\14.27.29110\include\chrono

; 607  :             const long long _Freq = _Query_perf_frequency(); // doesn't change after system boot

	call	QWORD PTR __imp__Query_perf_frequency
	mov	rbx, rax

; 608  :             const long long _Ctr  = _Query_perf_counter();

	call	QWORD PTR __imp__Query_perf_counter

; 616  :             const long long _Part  = (_Ctr % _Freq) * period::den / _Freq;

	cdq
	xorps	xmm6, xmm6
	idiv	rbx
	mov	rcx, rax
	imul	rax, rdx, 1000000000			; 3b9aca00H
	imul	rcx, rcx, 1000000000			; 3b9aca00H
	cdq
	idiv	rbx
; File D:\6 сем\АВП\Lab_2\Lab_2\Main.cpp

; 58   : 	cout << "SSE " << time_span.count() << " seconds." << endl;

	lea	rdx, OFFSET FLAT:??_C@_04HMADHGDM@SSE?5@
	add	rax, rcx
	mov	rcx, QWORD PTR __imp_?cout@std@@3V?$basic_ostream@DU?$char_traits@D@std@@@1@A
	sub	rax, r15
	cvtsi2sd xmm6, rax
; File C:\Program Files (x86)\Microsoft Visual Studio\2019\Community\VC\Tools\MSVC\14.27.29110\include\chrono

; 392  :                 return static_cast<_To>(

	divsd	xmm6, QWORD PTR __real@41cdcd6500000000
; File D:\6 сем\АВП\Lab_2\Lab_2\Main.cpp

; 58   : 	cout << "SSE " << time_span.count() << " seconds." << endl;

	call	??$?6U?$char_traits@D@std@@@std@@YAAEAV?$basic_ostream@DU?$char_traits@D@std@@@0@AEAV10@PEBD@Z ; std::operator<<<std::char_traits<char> >
	mov	rcx, rax
	movaps	xmm1, xmm6
	call	QWORD PTR __imp_??6?$basic_ostream@DU?$char_traits@D@std@@@std@@QEAAAEAV01@N@Z
	mov	rcx, rax
	lea	rdx, OFFSET FLAT:??_C@_09IOAHFIDM@?5seconds?4@
	call	??$?6U?$char_traits@D@std@@@std@@YAAEAV?$basic_ostream@DU?$char_traits@D@std@@@0@AEAV10@PEBD@Z ; std::operator<<<std::char_traits<char> >
	mov	rcx, rax
	lea	rdx, OFFSET FLAT:??$endl@DU?$char_traits@D@std@@@std@@YAAEAV?$basic_ostream@DU?$char_traits@D@std@@@0@AEAV10@@Z ; std::endl<char,std::char_traits<char> >
	call	QWORD PTR __imp_??6?$basic_ostream@DU?$char_traits@D@std@@@std@@QEAAAEAV01@P6AAEAV01@AEAV01@@Z@Z
; File C:\Program Files (x86)\Microsoft Visual Studio\2019\Community\VC\Tools\MSVC\14.27.29110\include\chrono

; 607  :             const long long _Freq = _Query_perf_frequency(); // doesn't change after system boot

	call	QWORD PTR __imp__Query_perf_frequency
	mov	rbx, rax

; 608  :             const long long _Ctr  = _Query_perf_counter();

	call	QWORD PTR __imp__Query_perf_counter

; 607  :             const long long _Freq = _Query_perf_frequency(); // doesn't change after system boot

	mov	r12, QWORD PTR matrix_out_1$1$[rsp]

; 616  :             const long long _Part  = (_Ctr % _Freq) * period::den / _Freq;

	cdq
	idiv	rbx

; 607  :             const long long _Freq = _Query_perf_frequency(); // doesn't change after system boot

	mov	r8, r12
	mov	QWORD PTR tv2217[rsp], r12

; 616  :             const long long _Part  = (_Ctr % _Freq) * period::den / _Freq;

	mov	rcx, rax

; 607  :             const long long _Freq = _Query_perf_frequency(); // doesn't change after system boot

	mov	QWORD PTR tv2215[rsp], 32		; 00000020H

; 616  :             const long long _Part  = (_Ctr % _Freq) * period::den / _Freq;

	imul	rax, rdx, 1000000000			; 3b9aca00H
	imul	rcx, rcx, 1000000000			; 3b9aca00H
	cdq
	idiv	rbx

; 607  :             const long long _Freq = _Query_perf_frequency(); // doesn't change after system boot

	mov	edx, 64					; 00000040H

; 617  :             return time_point(duration(_Whole + _Part));

	add	rax, rcx

; 607  :             const long long _Freq = _Query_perf_frequency(); // doesn't change after system boot

	mov	QWORD PTR tv2216[rsp], rdx
	xor	ecx, ecx

; 617  :             return time_point(duration(_Whole + _Part));

	mov	QWORD PTR tv2245[rsp], rax
	mov	QWORD PTR $T53[rsp], rcx
	npad	1
$LL87@main:
; File D:\6 сем\АВП\Lab_2\Lab_2\Main.cpp

; 97   : 		for (int jj = 0; jj < size; jj += block_size) {

	xor	r15d, r15d
$LL90@main:

; 98   : 			for (int in = 0; in < size; in += block_size)

	xor	r9d, r9d

; 99   : 			{
; 100  : 				int i_start = ii;    // индекс i для блока принимает значения [ii, ii + block_size)
; 101  : 				int i_end = ii + block_size;
; 102  : 				int j_start = jj;    // индекс j для блока принимает значения [jj, jj + block_size)
; 103  : 				int j_end = jj + block_size;

	lea	r13d, DWORD PTR [r15+64]
	mov	eax, 32					; 00000020H
	mov	QWORD PTR tv2218[rsp], rax
	lea	r11d, QWORD PTR [r9+64]
	npad	5
$LL93@main:

; 104  : 				int iin_start = in;
; 105  : 				int iin_end = in + block_size;
; 106  : 
; 107  : 				// обходим блок
; 108  : 				for (int rowin = i_start; rowin < i_end; rowin++) {

	cmp	rcx, rdx
	jge	$LN91@main

; 99   : 			{
; 100  : 				int i_start = ii;    // индекс i для блока принимает значения [ii, ii + block_size)
; 101  : 				int i_end = ii + block_size;
; 102  : 				int j_start = jj;    // индекс j для блока принимает значения [jj, jj + block_size)
; 103  : 				int j_end = jj + block_size;

	mov	rsi, QWORD PTR matrix_in_0$1$[rsp]
	mov	rbx, r8
	sub	rsi, r12
	mov	r12, rdx
	sub	r12, rcx
	npad	6
$LL96@main:

; 109  : 					for (int colin = j_start; colin < j_end; colin += 8) {

	cmp	r15d, r13d
	jge	SHORT $LN94@main

; 110  : 						RES3 = _mm256_load_ps(&RESMTRX3[rowin][colin]);

	mov	rdi, QWORD PTR [rbx]

; 112  : 							M1 = _mm256_set1_ps(MTRX1[rowin][iin]);

	mov	r10d, r13d
	sub	r10d, r15d
	movsxd	rax, r15d
	dec	r10d
	shr	r10d, 3
	inc	r10d
	lea	rcx, QWORD PTR [rdi+rax*4]
	npad	1
$LL99@main:

; 111  : 						for (int iin = iin_start; iin < iin_end; iin++) {

	mov	rdx, r9
	vmovups	ymm2, YMMWORD PTR [rcx]
	cmp	r9, r11
	jge	SHORT $LN101@main

; 112  : 							M1 = _mm256_set1_ps(MTRX1[rowin][iin]);

	mov	rax, QWORD PTR [rsi+rbx]
	lea	r8, QWORD PTR [rax+r9*4]
	npad	12
$LL102@main:

; 113  : 							M2 = _mm256_load_ps(&MTRX2[iin][colin]);

	mov	rax, QWORD PTR [r14+rdx*8]
	inc	rdx
	sub	rax, rdi
	vbroadcastss ymm0, DWORD PTR [r8]
	lea	r8, QWORD PTR [r8+4]

; 114  : 							RES3 = _mm256_add_ps(RES3, _mm256_mul_ps(M1, M2));

	vmulps	ymm0, ymm0, YMMWORD PTR [rax+rcx]
	vaddps	ymm2, ymm0, ymm2
	cmp	rdx, r11
	jl	SHORT $LL102@main
$LN101@main:

; 115  : 						}
; 116  : 						_mm256_store_ps(&RESMTRX3[rowin][colin], RES3);

	vmovups	YMMWORD PTR [rcx], ymm2
	add	rcx, 32					; 00000020H
	sub	r10, 1
	jne	SHORT $LL99@main
$LN94@main:

; 104  : 				int iin_start = in;
; 105  : 				int iin_end = in + block_size;
; 106  : 
; 107  : 				// обходим блок
; 108  : 				for (int rowin = i_start; rowin < i_end; rowin++) {

	add	rbx, 8
	sub	r12, 1
	jne	SHORT $LL96@main
	mov	rax, QWORD PTR tv2218[rsp]
	mov	rcx, QWORD PTR $T53[rsp]
	mov	rdx, QWORD PTR tv2216[rsp]
	mov	r8, QWORD PTR tv2217[rsp]
	mov	r12, QWORD PTR matrix_out_1$1$[rsp]
$LN91@main:

; 98   : 			for (int in = 0; in < size; in += block_size)

	add	r11, 64					; 00000040H
	add	r9, 64					; 00000040H
	sub	rax, 1
	mov	QWORD PTR tv2218[rsp], rax
	jne	$LL93@main

; 97   : 		for (int jj = 0; jj < size; jj += block_size) {

	mov	r15d, r13d
	cmp	r13d, 2048				; 00000800H
	jl	$LL90@main

; 88   : 		}
; 89   : 	}
; 90   : }
; 91   : 
; 92   : void SSEMatrixMultBlock(float** MTRX1, float** MTRX2, float** RESMTRX3) {
; 93   : 
; 94   : 	__m256 M1, M2, RES3;
; 95   : 	int block_size = 64;
; 96   : 	for (int ii = 0; ii < size; ii += block_size) {

	add	rdx, 64					; 00000040H
	add	rcx, 64					; 00000040H
	add	r8, 512					; 00000200H
	mov	QWORD PTR tv2216[rsp], rdx
	sub	QWORD PTR tv2215[rsp], 1
	mov	QWORD PTR $T53[rsp], rcx
	mov	QWORD PTR tv2217[rsp], r8
	jne	$LL87@main
; File C:\Program Files (x86)\Microsoft Visual Studio\2019\Community\VC\Tools\MSVC\14.27.29110\include\chrono

; 607  :             const long long _Freq = _Query_perf_frequency(); // doesn't change after system boot

	vzeroupper
	call	QWORD PTR __imp__Query_perf_frequency
	mov	rbx, rax

; 608  :             const long long _Ctr  = _Query_perf_counter();

	call	QWORD PTR __imp__Query_perf_counter

; 616  :             const long long _Part  = (_Ctr % _Freq) * period::den / _Freq;

	cdq
	xorps	xmm6, xmm6
	idiv	rbx
	mov	rcx, rax
	imul	rax, rdx, 1000000000			; 3b9aca00H
	imul	r8, rcx, 1000000000			; 3b9aca00H
; File D:\6 сем\АВП\Lab_2\Lab_2\Main.cpp

; 64   : 	cout << "SSE_Block " << time_span.count() << " seconds." << endl;

	mov	rcx, QWORD PTR __imp_?cout@std@@3V?$basic_ostream@DU?$char_traits@D@std@@@1@A
; File C:\Program Files (x86)\Microsoft Visual Studio\2019\Community\VC\Tools\MSVC\14.27.29110\include\chrono

; 616  :             const long long _Part  = (_Ctr % _Freq) * period::den / _Freq;

	cdq
	idiv	rbx
; File D:\6 сем\АВП\Lab_2\Lab_2\Main.cpp

; 64   : 	cout << "SSE_Block " << time_span.count() << " seconds." << endl;

	lea	rdx, OFFSET FLAT:??_C@_0L@HAFBHMDM@SSE_Block?5@
; File C:\Program Files (x86)\Microsoft Visual Studio\2019\Community\VC\Tools\MSVC\14.27.29110\include\chrono

; 617  :             return time_point(duration(_Whole + _Part));

	add	r8, rax

; 195  :             return _MyDur;

	sub	r8, QWORD PTR tv2245[rsp]

; 82   :             : _MyRep(static_cast<_Rep>(_Val)) {}

	cvtsi2sd xmm6, r8

; 392  :                 return static_cast<_To>(

	divsd	xmm6, QWORD PTR __real@41cdcd6500000000
; File D:\6 сем\АВП\Lab_2\Lab_2\Main.cpp

; 64   : 	cout << "SSE_Block " << time_span.count() << " seconds." << endl;

	call	??$?6U?$char_traits@D@std@@@std@@YAAEAV?$basic_ostream@DU?$char_traits@D@std@@@0@AEAV10@PEBD@Z ; std::operator<<<std::char_traits<char> >
	mov	rcx, rax
	movaps	xmm1, xmm6
	call	QWORD PTR __imp_??6?$basic_ostream@DU?$char_traits@D@std@@@std@@QEAAAEAV01@N@Z
	mov	rcx, rax
	lea	rdx, OFFSET FLAT:??_C@_09IOAHFIDM@?5seconds?4@
	call	??$?6U?$char_traits@D@std@@@std@@YAAEAV?$basic_ostream@DU?$char_traits@D@std@@@0@AEAV10@PEBD@Z ; std::operator<<<std::char_traits<char> >
	mov	rcx, rax
	lea	rdx, OFFSET FLAT:??$endl@DU?$char_traits@D@std@@@std@@YAAEAV?$basic_ostream@DU?$char_traits@D@std@@@0@AEAV10@@Z ; std::endl<char,std::char_traits<char> >
	call	QWORD PTR __imp_??6?$basic_ostream@DU?$char_traits@D@std@@@std@@QEAAAEAV01@P6AAEAV01@AEAV01@@Z@Z

; 65   : 	system("pause");

	lea	rcx, OFFSET FLAT:??_C@_05PDJBBECF@pause@
	call	QWORD PTR __imp_system
; File C:\Program Files (x86)\Microsoft Visual Studio\2019\Community\VC\Tools\MSVC\14.27.29110\include\chrono

; 607  :             const long long _Freq = _Query_perf_frequency(); // doesn't change after system boot

	mov	rax, QWORD PTR matrix_out_0$1$[rsp]
	mov	r14d, 2048				; 00000800H
	sub	rax, r12
	mov	QWORD PTR matrix_out_0$1$[rsp], rax
	npad	5
$LL19@main:
; File D:\6 сем\АВП\Lab_2\Lab_2\Main.cpp

; 69   : 			if (matrix_out_0[i][j] != matrix_out_1[i][j])printf("1");

	mov	rbx, QWORD PTR [r12]
	mov	edi, 2048				; 00000800H
	mov	rsi, QWORD PTR [rax+r12]
	sub	rsi, rbx
$LL22@main:
	movss	xmm0, DWORD PTR [rsi+rbx]
	ucomiss	xmm0, DWORD PTR [rbx]
	jp	SHORT $LN208@main
	je	SHORT $LN20@main
$LN208@main:
	lea	rcx, OFFSET FLAT:??_C@_01HIHLOKLC@1@
	call	printf
$LN20@main:

; 68   : 		for (int j = 0; j < size; j++) {

	add	rbx, 4
	sub	rdi, 1
	jne	SHORT $LL22@main

; 66   : 
; 67   : 	for (int i = 0; i < size; i++) { 

	mov	rax, QWORD PTR matrix_out_0$1$[rsp]
	add	r12, 8
	sub	r14, 1
	jne	SHORT $LL19@main

; 70   : 		}
; 71   : 	}
; 72   : 	return 0;
; 73   : }

	movaps	xmm6, XMMWORD PTR [rsp+80]
	xor	eax, eax
	add	rsp, 96					; 00000060H
	pop	r15
	pop	r14
	pop	r13
	pop	r12
	pop	rdi
	pop	rsi
	pop	rbx
	ret	0
main	ENDP
_TEXT	ENDS
; Function compile flags: /Ogtpy
; File D:\6 сем\АВП\Lab_2\Lab_2\Main.cpp
;	COMDAT ?SSEMatrixMult@@YAXPEAPEAM00@Z
_TEXT	SEGMENT
MTRX1$ = 8
MTRX2$ = 16
RESMTRX3$ = 24
?SSEMatrixMult@@YAXPEAPEAM00@Z PROC			; SSEMatrixMult, COMDAT

; 76   : void SSEMatrixMult(float** MTRX1, float** MTRX2, float** RESMTRX3) {

$LN25:
	mov	QWORD PTR [rsp+8], rbx
	mov	QWORD PTR [rsp+16], rsi
	mov	QWORD PTR [rsp+24], rdi
	mov	QWORD PTR [rsp+32], r14
	mov	r14, rcx
	mov	rbx, r8
	sub	r14, r8
	mov	r11, rdx
	mov	esi, 2048				; 00000800H
	npad	11
$LL4@SSEMatrixM:

; 80   : 		for (int j = 0; j <size; j += 8) {
; 81   : 			RES3 = _mm256_load_ps(&RESMTRX3[i][j]);

	mov	r9, QWORD PTR [rbx]
	mov	r10d, 256				; 00000100H
	mov	rdi, QWORD PTR [r14+rbx]
	mov	rdx, r9
$LL7@SSEMatrixM:
	vmovups	ymm2, YMMWORD PTR [rdx]
	xor	ecx, ecx
	mov	r8, rdi
	npad	7
$LL10@SSEMatrixM:

; 82   : 			for (int iin = 0; iin < size; iin++) {
; 83   : 				M1 = _mm256_set1_ps(MTRX1[i][iin]);
; 84   : 				M2 = _mm256_load_ps(&MTRX2[iin][j]);

	mov	rax, QWORD PTR [r11+rcx*8]
	inc	rcx
	sub	rax, r9
	vbroadcastss ymm0, DWORD PTR [r8]
	lea	r8, QWORD PTR [r8+4]

; 85   : 				RES3 = _mm256_add_ps(RES3, _mm256_mul_ps(M1, M2));

	vmulps	ymm0, ymm0, YMMWORD PTR [rax+rdx]
	vaddps	ymm2, ymm0, ymm2
	cmp	rcx, 2048				; 00000800H
	jl	SHORT $LL10@SSEMatrixM

; 86   : 			}
; 87   : 			_mm256_store_ps(&RESMTRX3[i][j], RES3);

	vmovups	YMMWORD PTR [rdx], ymm2
	add	rdx, 32					; 00000020H
	sub	r10, 1
	jne	SHORT $LL7@SSEMatrixM

; 77   : 
; 78   : 	__m256 M1, M2, RES3;
; 79   : 	for (int i = 0; i < size; i++) {

	add	rbx, 8
	sub	rsi, 1
	vzeroupper
	jne	SHORT $LL4@SSEMatrixM

; 88   : 		}
; 89   : 	}
; 90   : }

	mov	rbx, QWORD PTR [rsp+8]
	mov	rsi, QWORD PTR [rsp+16]
	mov	rdi, QWORD PTR [rsp+24]
	mov	r14, QWORD PTR [rsp+32]
	ret	0
?SSEMatrixMult@@YAXPEAPEAM00@Z ENDP			; SSEMatrixMult
_TEXT	ENDS
; Function compile flags: /Ogtpy
; File D:\6 сем\АВП\Lab_2\Lab_2\Main.cpp
;	COMDAT ?SSEMatrixMultBlock@@YAXPEAPEAM00@Z
_TEXT	SEGMENT
tv789 = 0
$T6 = 8
tv790 = 16
tv786 = 24
MTRX1$ = 96
MTRX2$ = 104
RESMTRX3$ = 112
tv792 = 120
?SSEMatrixMultBlock@@YAXPEAPEAM00@Z PROC		; SSEMatrixMultBlock, COMDAT

; 92   : void SSEMatrixMultBlock(float** MTRX1, float** MTRX2, float** RESMTRX3) {

$LN46:
	mov	QWORD PTR [rsp+24], r8
	mov	QWORD PTR [rsp+8], rcx
	push	rbx
	push	rsi
	push	rdi
	push	r12
	push	r13
	push	r14
	push	r15
	sub	rsp, 32					; 00000020H
	mov	r13, rdx

; 93   : 
; 94   : 	__m256 M1, M2, RES3;
; 95   : 	int block_size = 64;

	mov	QWORD PTR tv790[rsp], r8
	mov	rdi, rcx
	mov	QWORD PTR tv786[rsp], 32		; 00000020H
	xor	ecx, ecx
	mov	edx, 64					; 00000040H
	mov	QWORD PTR $T6[rsp], rcx
	mov	r10, r8
	mov	QWORD PTR tv789[rsp], rdx
$LL4@SSEMatrixM:

; 97   : 		for (int jj = 0; jj < size; jj += block_size) {

	xor	r15d, r15d
$LL7@SSEMatrixM:

; 98   : 			for (int in = 0; in < size; in += block_size)

	xor	r9d, r9d

; 99   : 			{
; 100  : 				int i_start = ii;    // индекс i для блока принимает значения [ii, ii + block_size)
; 101  : 				int i_end = ii + block_size;
; 102  : 				int j_start = jj;    // индекс j для блока принимает значения [jj, jj + block_size)
; 103  : 				int j_end = jj + block_size;

	lea	r12d, DWORD PTR [r15+64]
	mov	eax, 32					; 00000020H
	mov	QWORD PTR tv792[rsp], rax
	lea	ebx, QWORD PTR [r9+64]
	npad	8
$LL10@SSEMatrixM:

; 104  : 				int iin_start = in;
; 105  : 				int iin_end = in + block_size;
; 106  : 
; 107  : 				// обходим блок
; 108  : 				for (int rowin = i_start; rowin < i_end; rowin++) {

	cmp	rcx, rdx
	jge	$LN8@SSEMatrixM

; 99   : 			{
; 100  : 				int i_start = ii;    // индекс i для блока принимает значения [ii, ii + block_size)
; 101  : 				int i_end = ii + block_size;
; 102  : 				int j_start = jj;    // индекс j для блока принимает значения [jj, jj + block_size)
; 103  : 				int j_end = jj + block_size;

	sub	rdi, r10
	mov	r14, rdx
	sub	r14, rcx
	mov	r11, r8
$LL13@SSEMatrixM:

; 109  : 					for (int colin = j_start; colin < j_end; colin += 8) {

	cmp	r15d, r12d
	jge	SHORT $LN11@SSEMatrixM

; 110  : 						RES3 = _mm256_load_ps(&RESMTRX3[rowin][colin]);

	mov	rsi, QWORD PTR [r11]

; 112  : 							M1 = _mm256_set1_ps(MTRX1[rowin][iin]);

	mov	r10d, r12d
	sub	r10d, r15d
	movsxd	rax, r15d
	dec	r10d
	shr	r10d, 3
	inc	r10d
	lea	rcx, QWORD PTR [rsi+rax*4]
$LL16@SSEMatrixM:

; 110  : 						RES3 = _mm256_load_ps(&RESMTRX3[rowin][colin]);

	mov	rdx, r9
	vmovups	ymm2, YMMWORD PTR [rcx]

; 111  : 						for (int iin = iin_start; iin < iin_end; iin++) {

	cmp	r9, rbx
	jge	SHORT $LN18@SSEMatrixM

; 112  : 							M1 = _mm256_set1_ps(MTRX1[rowin][iin]);

	mov	rax, QWORD PTR [rdi+r11]
	lea	r8, QWORD PTR [rax+r9*4]
	npad	8
$LL19@SSEMatrixM:

; 113  : 							M2 = _mm256_load_ps(&MTRX2[iin][colin]);

	mov	rax, QWORD PTR [r13+rdx*8]
	inc	rdx
	sub	rax, rsi
	vbroadcastss ymm0, DWORD PTR [r8]
	lea	r8, QWORD PTR [r8+4]

; 114  : 							RES3 = _mm256_add_ps(RES3, _mm256_mul_ps(M1, M2));

	vmulps	ymm0, ymm0, YMMWORD PTR [rax+rcx]
	vaddps	ymm2, ymm0, ymm2
	cmp	rdx, rbx
	jl	SHORT $LL19@SSEMatrixM
$LN18@SSEMatrixM:

; 115  : 						}
; 116  : 						_mm256_store_ps(&RESMTRX3[rowin][colin], RES3);

	vmovups	YMMWORD PTR [rcx], ymm2
	add	rcx, 32					; 00000020H
	sub	r10, 1
	jne	SHORT $LL16@SSEMatrixM
	vzeroupper
$LN11@SSEMatrixM:

; 104  : 				int iin_start = in;
; 105  : 				int iin_end = in + block_size;
; 106  : 
; 107  : 				// обходим блок
; 108  : 				for (int rowin = i_start; rowin < i_end; rowin++) {

	add	r11, 8
	sub	r14, 1
	jne	SHORT $LL13@SSEMatrixM
	mov	rax, QWORD PTR tv792[rsp]
	mov	rcx, QWORD PTR $T6[rsp]
	mov	rdx, QWORD PTR tv789[rsp]
	mov	r8, QWORD PTR tv790[rsp]
	mov	r10, QWORD PTR RESMTRX3$[rsp]
	mov	rdi, QWORD PTR MTRX1$[rsp]
$LN8@SSEMatrixM:

; 98   : 			for (int in = 0; in < size; in += block_size)

	add	rbx, 64					; 00000040H
	add	r9, 64					; 00000040H
	sub	rax, 1
	mov	QWORD PTR tv792[rsp], rax
	jne	$LL10@SSEMatrixM

; 97   : 		for (int jj = 0; jj < size; jj += block_size) {

	mov	r15d, r12d
	cmp	r12d, 2048				; 00000800H
	jl	$LL7@SSEMatrixM

; 96   : 	for (int ii = 0; ii < size; ii += block_size) {

	add	rdx, 64					; 00000040H
	add	rcx, 64					; 00000040H
	add	r8, 512					; 00000200H
	mov	QWORD PTR tv789[rsp], rdx
	sub	QWORD PTR tv786[rsp], 1
	mov	QWORD PTR $T6[rsp], rcx
	mov	QWORD PTR tv790[rsp], r8
	jne	$LL4@SSEMatrixM

; 117  : 					}
; 118  : 				}
; 119  : 			}
; 120  : 		}
; 121  : 	}
; 122  : }

	add	rsp, 32					; 00000020H
	pop	r15
	pop	r14
	pop	r13
	pop	r12
	pop	rdi
	pop	rsi
	pop	rbx
	ret	0
?SSEMatrixMultBlock@@YAXPEAPEAM00@Z ENDP		; SSEMatrixMultBlock
_TEXT	ENDS
END
